#include <math.h>
#include <stdio.h>
#include <stdlib.h>
#include <string.h>

struct student
{
	char num[20];
	char name[20];
	char sex;
	int age;
	float score;
	char address[1000];
	struct student *next;
}stu[10000];
int main()
{
	struct student *head,*p;
	int i,j;
	char str[4]="end";
	for(i=0;;i++)
		{
			scanf("%s",stu[i].num);
	        if(strcmp(stu[i].num,str)==0)
			break;
			scanf("%s",&stu[i].name);
		    scanf(" %c",&stu[i].sex);
		    scanf("%d",&stu[i].age);
		    scanf("%f",&stu[i].score);  
		    scanf("%s",&stu[i].address);
	}		
	stu[0].next=NULL;
	for(j=1;j<i;j++)
		stu[j].next=&stu[j-1];
	head=&stu[i-1];
	if (i>0)
			for(p=head;p!=NULL;p=p->next)
		    printf("%s %s %c %d %g %s\n",p->num,p->name,p->sex,p->age,p->score,p->address);
	
	return 0;	
}

